; Function Attrs: mustprogress uwtable
define void @Z3_solver_interrupt(ptr noundef readnone captures(none) %0, ptr noundef %1) local_unnamed_addr #3 personality ptr @__gxx_personality_v0 {
  %3 = getelementptr inbounds nuw i8, ptr %1, i64 80
  %4 = tail call noundef i32 @pthread_mutex_lock(ptr noundef nonnull align 8 dereferenceable(40) %3) #25
  %.not.i.i.i = icmp eq i32 %4, 0
  br i1 %.not.i.i.i, label %_ZNSt10lock_guardISt5mutexEC2ERS0_.exit.i, label %5

5:                                                ; preds = %2
  tail call void @_ZSt20__throw_system_errori(i32 noundef %4) #26
  unreachable

_ZNSt10lock_guardISt5mutexEC2ERS0_.exit.i:        ; preds = %2
  %6 = getelementptr inbounds nuw i8, ptr %1, i64 120
  %7 = load ptr, ptr %6, align 8, !tbaa !61
  %.not.i = icmp eq ptr %7, null
  br i1 %.not.i, label %_ZN13Z3_solver_ref10set_cancelEv.exit, label %8

8:                                                ; preds = %_ZNSt10lock_guardISt5mutexEC2ERS0_.exit.i
  %9 = load ptr, ptr %7, align 8, !tbaa !27
  %10 = getelementptr inbounds nuw i8, ptr %9, i64 16
  %11 = load ptr, ptr %10, align 8
  invoke void %11(ptr noundef nonnull align 8 dereferenceable(12) %7, i32 noundef 4)
          to label %_ZN13Z3_solver_ref10set_cancelEv.exit unwind label %12

12:                                               ; preds = %8
  %13 = landingpad { ptr, i32 }
          cleanup
  %14 = tail call noundef i32 @pthread_mutex_unlock(ptr noundef nonnull align 8 dereferenceable(40) %3) #25
  resume { ptr, i32 } %13

_ZN13Z3_solver_ref10set_cancelEv.exit:            ; preds = %_ZNSt10lock_guardISt5mutexEC2ERS0_.exit.i, %8
  %15 = tail call noundef i32 @pthread_mutex_unlock(ptr noundef nonnull align 8 dereferenceable(40) %3) #25
  ret void
}